; ModuleID = 'source-C-CXX/18/619.c'
source_filename = "source-C-CXX/18/619.c"
target datalayout = "e-m:e-p270:32:32-p271:32:32-p272:64:64-i64:64-f80:128-n8:16:32:64-S128"
target triple = "x86_64-pc-linux-gnu"

@.str.1 = private unnamed_addr constant [3 x i8] c"%s\00", align 1

; Function Attrs: nounwind sspstrong uwtable
define dso_local void @main() local_unnamed_addr #0 {
  %1 = alloca [10000 x i8], align 16
  %2 = alloca [100 x i8], align 16
  %3 = getelementptr inbounds [100 x i8], [100 x i8]* %2, i64 0, i64 0
  %4 = alloca [100 x i8], align 16
  %5 = alloca [100 x i8], align 16
  %6 = getelementptr inbounds [10000 x i8], [10000 x i8]* %1, i64 0, i64 0
  call void @llvm.lifetime.start.p0i8(i64 10000, i8* nonnull %6) #8
  %7 = getelementptr inbounds [100 x i8], [100 x i8]* %2, i64 0, i64 0
  call void @llvm.lifetime.start.p0i8(i64 100, i8* nonnull %7) #8
  %8 = getelementptr inbounds [100 x i8], [100 x i8]* %4, i64 0, i64 0
  call void @llvm.lifetime.start.p0i8(i64 100, i8* nonnull %8) #8
  %9 = getelementptr inbounds [100 x i8], [100 x i8]* %5, i64 0, i64 0
  call void @llvm.lifetime.start.p0i8(i64 100, i8* nonnull %9) #8
  %10 = call i32 (i8*, ...) bitcast (i32 (...)* @gets to i32 (i8*, ...)*)(i8* nonnull %6) #8
  %11 = call i32 (i8*, ...) bitcast (i32 (...)* @gets to i32 (i8*, ...)*)(i8* nonnull %8) #8
  %12 = call i32 (i8*, ...) bitcast (i32 (...)* @gets to i32 (i8*, ...)*)(i8* nonnull %9) #8
  %13 = load i8, i8* %6, align 16, !tbaa !5
  %14 = icmp eq i8 %13, 0
  br i1 %14, label %49, label %15

15:                                               ; preds = %0, %40
  %16 = phi i32 [ %43, %40 ], [ 0, %0 ]
  %17 = phi i32 [ %44, %40 ], [ 0, %0 ]
  %18 = sext i32 %17 to i64
  br label %19

19:                                               ; preds = %15, %24
  %20 = phi i64 [ 0, %15 ], [ %27, %24 ]
  %21 = phi i64 [ %18, %15 ], [ %26, %24 ]
  %22 = getelementptr inbounds [10000 x i8], [10000 x i8]* %1, i64 0, i64 %21
  %23 = load i8, i8* %22, align 1, !tbaa !5
  switch i8 %23, label %24 [
    i8 32, label %28
    i8 0, label %28
  ]

24:                                               ; preds = %19
  %25 = getelementptr inbounds [100 x i8], [100 x i8]* %2, i64 0, i64 %20
  store i8 %23, i8* %25, align 1, !tbaa !5
  %26 = add i64 %21, 1
  %27 = add nuw i64 %20, 1
  br label %19, !llvm.loop !8

28:                                               ; preds = %19, %19
  %29 = trunc i64 %21 to i32
  %30 = and i64 %20, 4294967295
  %31 = getelementptr inbounds [100 x i8], [100 x i8]* %2, i64 0, i64 %30
  store i8 0, i8* %31, align 1, !tbaa !5
  %32 = call i32 @strcmp(i8* noundef nonnull %7, i8* noundef nonnull %8) #9
  %33 = icmp eq i32 %32, 0
  br i1 %33, label %34, label %36

34:                                               ; preds = %28
  %35 = call i8* @strcpy(i8* noundef nonnull %7, i8* noundef nonnull %9) #8
  br label %36

36:                                               ; preds = %34, %28
  %37 = icmp eq i32 %16, 0
  br i1 %37, label %40, label %38

38:                                               ; preds = %36
  %39 = call i32 @putchar(i32 32)
  br label %40

40:                                               ; preds = %38, %36
  %41 = call i32 (i8*, ...) @printf(i8* nonnull dereferenceable(1) getelementptr inbounds ([3 x i8], [3 x i8]* @.str.1, i64 0, i64 0), i8* nonnull %7)
  %42 = add nuw nsw i64 %30, 1
  call void @llvm.memset.p0i8.i64(i8* noundef nonnull align 16 %3, i8 0, i64 %42, i1 false)
  %43 = add nuw nsw i32 %16, 1
  %44 = add nsw i32 %29, 1
  %45 = sext i32 %44 to i64
  %46 = getelementptr inbounds [10000 x i8], [10000 x i8]* %1, i64 0, i64 %45
  %47 = load i8, i8* %46, align 1, !tbaa !5
  %48 = icmp eq i8 %47, 0
  br i1 %48, label %49, label %15, !llvm.loop !10

49:                                               ; preds = %40, %0
  call void @llvm.lifetime.end.p0i8(i64 100, i8* nonnull %9) #8
  call void @llvm.lifetime.end.p0i8(i64 100, i8* nonnull %8) #8
  call void @llvm.lifetime.end.p0i8(i64 100, i8* nonnull %7) #8
  call void @llvm.lifetime.end.p0i8(i64 10000, i8* nonnull %6) #8
  ret void
}

; Function Attrs: argmemonly mustprogress nofree nosync nounwind willreturn
declare void @llvm.lifetime.start.p0i8(i64 immarg, i8* nocapture) #1

declare i32 @gets(...) local_unnamed_addr #2

; Function Attrs: argmemonly mustprogress nofree nounwind readonly willreturn
declare i32 @strcmp(i8* nocapture, i8* nocapture) local_unnamed_addr #3

; Function Attrs: argmemonly mustprogress nofree nounwind willreturn
declare i8* @strcpy(i8* noalias returned writeonly, i8* noalias nocapture readonly) local_unnamed_addr #4

; Function Attrs: nofree nounwind
declare noundef i32 @printf(i8* nocapture noundef readonly, ...) local_unnamed_addr #5

; Function Attrs: argmemonly mustprogress nofree nosync nounwind willreturn
declare void @llvm.lifetime.end.p0i8(i64 immarg, i8* nocapture) #1

; Function Attrs: nofree nounwind
declare noundef i32 @putchar(i32 noundef) local_unnamed_addr #6

; Function Attrs: argmemonly nofree nounwind willreturn writeonly
declare void @llvm.memset.p0i8.i64(i8* nocapture writeonly, i8, i64, i1 immarg) #7


!llvm.module.flags = !{!0, !1, !2, !3}
!llvm.ident = !{!4}

!0 = !{i32 1, !"wchar_size", i32 4}
!1 = !{i32 7, !"PIC Level", i32 2}
!2 = !{i32 7, !"PIE Level", i32 2}
!3 = !{i32 7, !"uwtable", i32 1}
!4 = !{!"clang version 13.0.0"}
!5 = !{!6, !6, i64 0}
!6 = !{!"omnipotent char", !7, i64 0}
!7 = !{!"Simple C/C++ TBAA"}
!8 = distinct !{!8, !9}
!9 = !{!"llvm.loop.mustprogress"}
!10 = distinct !{!10, !9}
